; Function Attrs: mustprogress uwtable
define hidden void @_ZN5osgeo4proj8metadata10IdentifierC2ERKNSt7__cxx1112basic_stringIcSt11char_traitsIcESaIcEEERKNS0_4util11PropertyMapE(ptr noundef nonnull align 8 dereferenceable(40) %0, ptr noundef nonnull align 8 dereferenceable(32) %1, ptr noundef nonnull align 8 dereferenceable(8) %2) unnamed_addr #0 align 2 personality ptr @__gxx_personality_v0 {
  tail call void @_ZN5osgeo4proj4util10BaseObjectC2Ev(ptr noundef nonnull align 8 dereferenceable(16) %0)
  %4 = getelementptr inbounds i8, ptr %0, i64 16
  %5 = getelementptr inbounds i8, ptr %0, i64 24
  store ptr getelementptr inbounds inrange(-16, 32) ({ [6 x ptr], [5 x ptr], [5 x ptr] }, ptr @_ZTVN5osgeo4proj8metadata10IdentifierE, i64 0, i32 0, i64 2), ptr %0, align 8
  store ptr getelementptr inbounds inrange(-16, 24) ({ [6 x ptr], [5 x ptr], [5 x ptr] }, ptr @_ZTVN5osgeo4proj8metadata10IdentifierE, i64 0, i32 1, i64 2), ptr %4, align 8
  store ptr getelementptr inbounds inrange(-16, 24) ({ [6 x ptr], [5 x ptr], [5 x ptr] }, ptr @_ZTVN5osgeo4proj8metadata10IdentifierE, i64 0, i32 2, i64 2), ptr %5, align 8
  tail call void @llvm.experimental.noalias.scope.decl(metadata !86)
  %6 = invoke noalias noundef nonnull dereferenceable(224) ptr @_Znwm(i64 noundef 224) #27
          to label %.noexc unwind label %11

.noexc:                                           ; preds = %3
  invoke void @_ZN5osgeo4proj8metadata10Identifier7PrivateC2ERKNSt7__cxx1112basic_stringIcSt11char_traitsIcESaIcEEERKNS0_4util11PropertyMapE(ptr noundef nonnull align 8 dereferenceable(224) %6, ptr noundef nonnull align 8 dereferenceable(32) %1, ptr noundef nonnull align 8 dereferenceable(8) %2)
          to label %9 unwind label %7, !noalias !86

7:                                                ; preds = %.noexc
  %8 = landingpad { ptr, i32 }
          cleanup
  tail call void @_ZdlPv(ptr noundef nonnull %6) #29, !noalias !86
  br label %.body

9:                                                ; preds = %.noexc
  %10 = getelementptr inbounds i8, ptr %0, i64 32
  store ptr %6, ptr %10, align 8, !alias.scope !86
  ret void

11:                                               ; preds = %3
  %12 = landingpad { ptr, i32 }
          cleanup
  br label %.body

.body:                                            ; preds = %7, %11
  %eh.lpad-body = phi { ptr, i32 } [ %12, %11 ], [ %8, %7 ]
  tail call void @_ZN5osgeo4proj2io15IJSONExportableD2Ev(ptr noundef nonnull align 8 dereferenceable(8) %5) #28
  tail call void @_ZN5osgeo4proj2io14IWKTExportableD2Ev(ptr noundef nonnull align 8 dereferenceable(8) %4) #28
  tail call void @_ZN5osgeo4proj4util10BaseObjectD2Ev(ptr noundef nonnull align 8 dereferenceable(16) %0) #28
  resume { ptr, i32 } %eh.lpad-body
}